; ModuleID = '35/2310.c'
source_filename = "35/2310.c"
target datalayout = "e-m:e-p270:32:32-p271:32:32-p272:64:64-i64:64-f80:128-n8:16:32:64-S128"
target triple = "x86_64-pc-linux-gnu"

@.str = private unnamed_addr constant [6 x i8] c"%d,%d\00", align 1
@.str.1 = private unnamed_addr constant [3 x i8] c"%d\00", align 1
@.str.2 = private unnamed_addr constant [7 x i8] c"%d+%d\0A\00", align 1
@.str.3 = private unnamed_addr constant [3 x i8] c"No\00", align 1

; Function Attrs: noinline nounwind uwtable
define dso_local i32 @main() #0 {
  %1 = alloca i32, align 4
  %2 = alloca i32, align 4
  %3 = alloca i32, align 4
  %4 = alloca i32, align 4
  %5 = alloca i32, align 4
  %6 = alloca i32, align 4
  %7 = alloca i32, align 4
  %8 = alloca [10 x [10 x i32]], align 16
  %9 = alloca [10 x i32], align 16
  %10 = alloca [10 x i32], align 16
  store i32 0, i32* %1, align 4
  %11 = call i32 (i8*, ...) @__isoc99_scanf(i8* getelementptr inbounds ([6 x i8], [6 x i8]* @.str, i64 0, i64 0), i32* %6, i32* %2)
  store i32 0, i32* %4, align 4
  br label %12

12:                                               ; preds = %33, %0
  %13 = load i32, i32* %4, align 4
  %14 = load i32, i32* %6, align 4
  %15 = icmp slt i32 %13, %14
  br i1 %15, label %16, label %36

16:                                               ; preds = %12
  store i32 0, i32* %5, align 4
  br label %17

17:                                               ; preds = %29, %16
  %18 = load i32, i32* %5, align 4
  %19 = load i32, i32* %2, align 4
  %20 = icmp slt i32 %18, %19
  br i1 %20, label %21, label %32

21:                                               ; preds = %17
  %22 = load i32, i32* %4, align 4
  %23 = sext i32 %22 to i64
  %24 = getelementptr inbounds [10 x [10 x i32]], [10 x [10 x i32]]* %8, i64 0, i64 %23
  %25 = load i32, i32* %5, align 4
  %26 = sext i32 %25 to i64
  %27 = getelementptr inbounds [10 x i32], [10 x i32]* %24, i64 0, i64 %26
  %28 = call i32 (i8*, ...) @__isoc99_scanf(i8* getelementptr inbounds ([3 x i8], [3 x i8]* @.str.1, i64 0, i64 0), i32* %27)
  br label %29

29:                                               ; preds = %21
  %30 = load i32, i32* %5, align 4
  %31 = add nsw i32 %30, 1
  store i32 %31, i32* %5, align 4
  br label %17

32:                                               ; preds = %17
  br label %33

33:                                               ; preds = %32
  %34 = load i32, i32* %4, align 4
  %35 = add nsw i32 %34, 1
  store i32 %35, i32* %4, align 4
  br label %12

36:                                               ; preds = %12
  store i32 0, i32* %4, align 4
  br label %37

37:                                               ; preds = %81, %36
  %38 = load i32, i32* %4, align 4
  %39 = load i32, i32* %6, align 4
  %40 = icmp slt i32 %38, %39
  br i1 %40, label %41, label %84

41:                                               ; preds = %37
  %42 = load i32, i32* %4, align 4
  %43 = sext i32 %42 to i64
  %44 = getelementptr inbounds [10 x [10 x i32]], [10 x [10 x i32]]* %8, i64 0, i64 %43
  %45 = getelementptr inbounds [10 x i32], [10 x i32]* %44, i64 0, i64 0
  %46 = load i32, i32* %45, align 8
  store i32 %46, i32* %7, align 4
  %47 = load i32, i32* %4, align 4
  %48 = sext i32 %47 to i64
  %49 = getelementptr inbounds [10 x i32], [10 x i32]* %9, i64 0, i64 %48
  store i32 0, i32* %49, align 4
  store i32 0, i32* %5, align 4
  br label %50

50:                                               ; preds = %77, %41
  %51 = load i32, i32* %5, align 4
  %52 = load i32, i32* %2, align 4
  %53 = icmp slt i32 %51, %52
  br i1 %53, label %54, label %80

54:                                               ; preds = %50
  %55 = load i32, i32* %7, align 4
  %56 = load i32, i32* %4, align 4
  %57 = sext i32 %56 to i64
  %58 = getelementptr inbounds [10 x [10 x i32]], [10 x [10 x i32]]* %8, i64 0, i64 %57
  %59 = load i32, i32* %5, align 4
  %60 = sext i32 %59 to i64
  %61 = getelementptr inbounds [10 x i32], [10 x i32]* %58, i64 0, i64 %60
  %62 = load i32, i32* %61, align 4
  %63 = icmp slt i32 %55, %62
  br i1 %63, label %64, label %76

64:                                               ; preds = %54
  %65 = load i32, i32* %4, align 4
  %66 = sext i32 %65 to i64
  %67 = getelementptr inbounds [10 x [10 x i32]], [10 x [10 x i32]]* %8, i64 0, i64 %66
  %68 = load i32, i32* %5, align 4
  %69 = sext i32 %68 to i64
  %70 = getelementptr inbounds [10 x i32], [10 x i32]* %67, i64 0, i64 %69
  %71 = load i32, i32* %70, align 4
  store i32 %71, i32* %7, align 4
  %72 = load i32, i32* %5, align 4
  %73 = load i32, i32* %4, align 4
  %74 = sext i32 %73 to i64
  %75 = getelementptr inbounds [10 x i32], [10 x i32]* %9, i64 0, i64 %74
  store i32 %72, i32* %75, align 4
  br label %76

76:                                               ; preds = %64, %54
  br label %77

77:                                               ; preds = %76
  %78 = load i32, i32* %5, align 4
  %79 = add nsw i32 %78, 1
  store i32 %79, i32* %5, align 4
  br label %50

80:                                               ; preds = %50
  br label %81

81:                                               ; preds = %80
  %82 = load i32, i32* %4, align 4
  %83 = add nsw i32 %82, 1
  store i32 %83, i32* %4, align 4
  br label %37

84:                                               ; preds = %37
  store i32 0, i32* %4, align 4
  br label %85

85:                                               ; preds = %129, %84
  %86 = load i32, i32* %4, align 4
  %87 = load i32, i32* %2, align 4
  %88 = icmp slt i32 %86, %87
  br i1 %88, label %89, label %132

89:                                               ; preds = %85
  %90 = getelementptr inbounds [10 x [10 x i32]], [10 x [10 x i32]]* %8, i64 0, i64 0
  %91 = load i32, i32* %4, align 4
  %92 = sext i32 %91 to i64
  %93 = getelementptr inbounds [10 x i32], [10 x i32]* %90, i64 0, i64 %92
  %94 = load i32, i32* %93, align 4
  store i32 %94, i32* %7, align 4
  %95 = load i32, i32* %4, align 4
  %96 = sext i32 %95 to i64
  %97 = getelementptr inbounds [10 x i32], [10 x i32]* %10, i64 0, i64 %96
  store i32 0, i32* %97, align 4
  store i32 0, i32* %5, align 4
  br label %98

98:                                               ; preds = %125, %89
  %99 = load i32, i32* %5, align 4
  %100 = load i32, i32* %6, align 4
  %101 = icmp slt i32 %99, %100
  br i1 %101, label %102, label %128

102:                                              ; preds = %98
  %103 = load i32, i32* %7, align 4
  %104 = load i32, i32* %5, align 4
  %105 = sext i32 %104 to i64
  %106 = getelementptr inbounds [10 x [10 x i32]], [10 x [10 x i32]]* %8, i64 0, i64 %105
  %107 = load i32, i32* %4, align 4
  %108 = sext i32 %107 to i64
  %109 = getelementptr inbounds [10 x i32], [10 x i32]* %106, i64 0, i64 %108
  %110 = load i32, i32* %109, align 4
  %111 = icmp sgt i32 %103, %110
  br i1 %111, label %112, label %124

112:                                              ; preds = %102
  %113 = load i32, i32* %5, align 4
  %114 = sext i32 %113 to i64
  %115 = getelementptr inbounds [10 x [10 x i32]], [10 x [10 x i32]]* %8, i64 0, i64 %114
  %116 = load i32, i32* %4, align 4
  %117 = sext i32 %116 to i64
  %118 = getelementptr inbounds [10 x i32], [10 x i32]* %115, i64 0, i64 %117
  %119 = load i32, i32* %118, align 4
  store i32 %119, i32* %7, align 4
  %120 = load i32, i32* %5, align 4
  %121 = load i32, i32* %4, align 4
  %122 = sext i32 %121 to i64
  %123 = getelementptr inbounds [10 x i32], [10 x i32]* %10, i64 0, i64 %122
  store i32 %120, i32* %123, align 4
  br label %124

124:                                              ; preds = %112, %102
  br label %125

125:                                              ; preds = %124
  %126 = load i32, i32* %5, align 4
  %127 = add nsw i32 %126, 1
  store i32 %127, i32* %5, align 4
  br label %98

128:                                              ; preds = %98
  br label %129

129:                                              ; preds = %128
  %130 = load i32, i32* %4, align 4
  %131 = add nsw i32 %130, 1
  store i32 %131, i32* %4, align 4
  br label %85

132:                                              ; preds = %85
  store i32 0, i32* %4, align 4
  br label %133

133:                                              ; preds = %162, %132
  %134 = load i32, i32* %4, align 4
  %135 = load i32, i32* %6, align 4
  %136 = icmp slt i32 %134, %135
  br i1 %136, label %137, label %165

137:                                              ; preds = %133
  %138 = load i32, i32* %4, align 4
  %139 = sext i32 %138 to i64
  %140 = getelementptr inbounds [10 x i32], [10 x i32]* %9, i64 0, i64 %139
  %141 = load i32, i32* %140, align 4
  %142 = sext i32 %141 to i64
  %143 = getelementptr inbounds [10 x i32], [10 x i32]* %10, i64 0, i64 %142
  %144 = load i32, i32* %143, align 4
  %145 = load i32, i32* %4, align 4
  %146 = icmp eq i32 %144, %145
  br i1 %146, label %147, label %154

147:                                              ; preds = %137
  %148 = load i32, i32* %4, align 4
  %149 = load i32, i32* %4, align 4
  %150 = sext i32 %149 to i64
  %151 = getelementptr inbounds [10 x i32], [10 x i32]* %9, i64 0, i64 %150
  %152 = load i32, i32* %151, align 4
  %153 = call i32 (i8*, ...) @printf(i8* getelementptr inbounds ([7 x i8], [7 x i8]* @.str.2, i64 0, i64 0), i32 %148, i32 %152)
  br label %165

154:                                              ; preds = %137
  %155 = load i32, i32* %4, align 4
  %156 = load i32, i32* %6, align 4
  %157 = sub nsw i32 %156, 1
  %158 = icmp eq i32 %155, %157
  br i1 %158, label %159, label %161

159:                                              ; preds = %154
  %160 = call i32 (i8*, ...) @printf(i8* getelementptr inbounds ([3 x i8], [3 x i8]* @.str.3, i64 0, i64 0))
  br label %161

161:                                              ; preds = %159, %154
  br label %162

162:                                              ; preds = %161
  %163 = load i32, i32* %4, align 4
  %164 = add nsw i32 %163, 1
  store i32 %164, i32* %4, align 4
  br label %133

165:                                              ; preds = %147, %133
  ret i32 0
}

declare dso_local i32 @__isoc99_scanf(i8*, ...) #1

declare dso_local i32 @printf(i8*, ...) #1


!llvm.module.flags = !{!0}
!llvm.ident = !{!1}

!0 = !{i32 1, !"wchar_size", i32 4}
!1 = !{!"clang version 10.0.0-4ubuntu1 "}
